target datalayout = "e-m:e-p270:32:32-p271:32:32-p272:64:64-i64:64-i128:128-f80:128-n8:16:32:64-S128"
target triple = "x86_64-pc-linux-gnu"

%struct.QuESTEnv = type { i32, i32, ptr, i32, ptr }

; Function Attrs: nounwind uwtable
define void @seedQuEST(ptr noundef %0, ptr noundef %1, i32 noundef %2) #0 {
  %4 = alloca ptr, align 8
  %5 = alloca ptr, align 8
  %6 = alloca i32, align 4
  %7 = alloca i32, align 4
  store ptr %0, ptr %4, align 8, !tbaa !34
  store ptr %1, ptr %5, align 8, !tbaa !36
  store i32 %2, ptr %6, align 4, !tbaa !4
  %8 = load ptr, ptr %4, align 8, !tbaa !34
  %9 = getelementptr inbounds nuw %struct.QuESTEnv, ptr %8, i32 0, i32 2
  %10 = load ptr, ptr %9, align 8, !tbaa !28
  %11 = icmp ne ptr %10, null
  br i1 %11, label %12, label %16

12:                                               ; preds = %3
  %13 = load ptr, ptr %4, align 8, !tbaa !34
  %14 = getelementptr inbounds nuw %struct.QuESTEnv, ptr %13, i32 0, i32 2
  %15 = load ptr, ptr %14, align 8, !tbaa !28
  call void @free(ptr noundef %15) #6
  br label %16

16:                                               ; preds = %12, %3
  %17 = load i32, ptr %6, align 4, !tbaa !4
  %18 = sext i32 %17 to i64
  %19 = mul i64 %18, 8
  %20 = call noalias ptr @malloc(i64 noundef %19) #7
  %21 = load ptr, ptr %4, align 8, !tbaa !34
  %22 = getelementptr inbounds nuw %struct.QuESTEnv, ptr %21, i32 0, i32 2
  store ptr %20, ptr %22, align 8, !tbaa !28
  call void @llvm.lifetime.start.p0(i64 4, ptr %7) #6
  store i32 0, ptr %7, align 4, !tbaa !4
  br label %23

23:                                               ; preds = %40, %16
  %24 = load i32, ptr %7, align 4, !tbaa !4
  %25 = load i32, ptr %6, align 4, !tbaa !4
  %26 = icmp slt i32 %24, %25
  br i1 %26, label %28, label %27

27:                                               ; preds = %23
  call void @llvm.lifetime.end.p0(i64 4, ptr %7) #6
  br label %43

28:                                               ; preds = %23
  %29 = load ptr, ptr %5, align 8, !tbaa !36
  %30 = load i32, ptr %7, align 4, !tbaa !4
  %31 = sext i32 %30 to i64
  %32 = getelementptr inbounds i64, ptr %29, i64 %31
  %33 = load i64, ptr %32, align 8, !tbaa !37
  %34 = load ptr, ptr %4, align 8, !tbaa !34
  %35 = getelementptr inbounds nuw %struct.QuESTEnv, ptr %34, i32 0, i32 2
  %36 = load ptr, ptr %35, align 8, !tbaa !28
  %37 = load i32, ptr %7, align 4, !tbaa !4
  %38 = sext i32 %37 to i64
  %39 = getelementptr inbounds i64, ptr %36, i64 %38
  store i64 %33, ptr %39, align 8, !tbaa !37
  br label %40

40:                                               ; preds = %28
  %41 = load i32, ptr %7, align 4, !tbaa !4
  %42 = add nsw i32 %41, 1
  store i32 %42, ptr %7, align 4, !tbaa !4
  br label %23

43:                                               ; preds = %27
  %44 = load i32, ptr %6, align 4, !tbaa !4
  %45 = load ptr, ptr %4, align 8, !tbaa !34
  %46 = getelementptr inbounds nuw %struct.QuESTEnv, ptr %45, i32 0, i32 3
  store i32 %44, ptr %46, align 8, !tbaa !29
  %47 = load ptr, ptr %5, align 8, !tbaa !36
  %48 = load i32, ptr %6, align 4, !tbaa !4
  call void @init_by_array(ptr noundef %47, i32 noundef %48)
  ret void
}