; Function Attrs: nounwind uwtable
define void @seedQuEST(ptr noundef captures(none) initializes((16, 20)) %0, ptr noundef %1, i32 noundef %2) local_unnamed_addr #0 {
  %4 = getelementptr inbounds nuw i8, ptr %0, i64 8
  %5 = load ptr, ptr %4, align 8, !tbaa !26
  %.not = icmp eq ptr %5, null
  br i1 %.not, label %7, label %6

6:                                                ; preds = %3
  tail call void @free(ptr noundef nonnull %5) #15
  br label %7

7:                                                ; preds = %6, %3
  %8 = sext i32 %2 to i64
  %9 = shl nsw i64 %8, 3
  %10 = tail call noalias ptr @malloc(i64 noundef %9) #16
  store ptr %10, ptr %4, align 8, !tbaa !26
  %11 = icmp sgt i32 %2, 0
  br i1 %11, label %.lr.ph.preheader, label %._crit_edge

.lr.ph.preheader:                                 ; preds = %7
  %12 = zext nneg i32 %2 to i64
  %13 = shl nuw nsw i64 %12, 3
  tail call void @llvm.memcpy.p0.p0.i64(ptr align 8 %10, ptr align 8 %1, i64 %13, i1 false), !tbaa !28
  br label %._crit_edge

._crit_edge:                                      ; preds = %.lr.ph.preheader, %7
  %14 = getelementptr inbounds nuw i8, ptr %0, i64 16
  store i32 %2, ptr %14, align 8, !tbaa !27
  tail call void @init_by_array(ptr noundef %1, i32 noundef %2) #15
  ret void
}